; Function Attrs: mustprogress uwtable
define internal fastcc void @_ZL31LinkLibraryTypeSpecifierWarningR10cmMakefileii(ptr noundef nonnull align 8 dereferenceable(3520) %0, i32 noundef range(i32 0, 3) %1, i32 noundef range(i32 0, 3) %2) unnamed_addr #3 personality ptr @__gxx_personality_v0 {
  %4 = alloca [5 x %"struct.std::pair"], align 8
  %5 = alloca %"class.std::__cxx11::basic_string", align 8
  %6 = zext nneg i32 %1 to i64
  %7 = getelementptr inbounds nuw [3 x ptr], ptr @_ZN12_GLOBAL__N_120LinkLibraryTypeNamesE, i64 0, i64 %6
  %8 = zext nneg i32 %2 to i64
  %9 = getelementptr inbounds nuw [3 x ptr], ptr @_ZN12_GLOBAL__N_120LinkLibraryTypeNamesE, i64 0, i64 %8
  call void @llvm.lifetime.start.p0(i64 120, ptr nonnull %4)
  store i64 29, ptr %4, align 8, !alias.scope !31, !noalias !34
  %.sroa.2.0..sroa_idx.i.i = getelementptr inbounds nuw i8, ptr %4, i64 8
  store ptr @.str.32, ptr %.sroa.2.0..sroa_idx.i.i, align 8, !alias.scope !31, !noalias !34
  %10 = getelementptr inbounds nuw i8, ptr %4, i64 16
  store ptr null, ptr %10, align 8, !alias.scope !31, !noalias !34
  %11 = getelementptr inbounds nuw i8, ptr %4, i64 24
  %12 = load ptr, ptr %7, align 8, !noalias !34
  %13 = tail call noundef i64 @strlen(ptr noundef nonnull dereferenceable(1) %12) #17, !noalias !34
  store i64 %13, ptr %11, align 8, !alias.scope !37, !noalias !34
  %.sroa.2.0..sroa_idx.i8.i = getelementptr inbounds nuw i8, ptr %4, i64 32
  store ptr %12, ptr %.sroa.2.0..sroa_idx.i8.i, align 8, !alias.scope !37, !noalias !34
  %14 = getelementptr inbounds nuw i8, ptr %4, i64 40
  store ptr null, ptr %14, align 8, !alias.scope !37, !noalias !34
  %15 = getelementptr inbounds nuw i8, ptr %4, i64 48
  store i64 28, ptr %15, align 8, !alias.scope !40, !noalias !34
  %.sroa.2.0..sroa_idx.i16.i = getelementptr inbounds nuw i8, ptr %4, i64 56
  store ptr @.str.33, ptr %.sroa.2.0..sroa_idx.i16.i, align 8, !alias.scope !40, !noalias !34
  %16 = getelementptr inbounds nuw i8, ptr %4, i64 64
  store ptr null, ptr %16, align 8, !alias.scope !40, !noalias !34
  %17 = getelementptr inbounds nuw i8, ptr %4, i64 72
  %18 = load ptr, ptr %9, align 8, !noalias !34
  %19 = tail call noundef i64 @strlen(ptr noundef nonnull dereferenceable(1) %18) #17, !noalias !34
  store i64 %19, ptr %17, align 8, !alias.scope !43, !noalias !34
  %.sroa.2.0..sroa_idx.i24.i = getelementptr inbounds nuw i8, ptr %4, i64 80
  store ptr %18, ptr %.sroa.2.0..sroa_idx.i24.i, align 8, !alias.scope !43, !noalias !34
  %20 = getelementptr inbounds nuw i8, ptr %4, i64 88
  store ptr null, ptr %20, align 8, !alias.scope !43, !noalias !34
  %21 = getelementptr inbounds nuw i8, ptr %4, i64 96
  store i64 66, ptr %21, align 8, !alias.scope !46, !noalias !34
  %.sroa.2.0..sroa_idx.i32.i = getelementptr inbounds nuw i8, ptr %4, i64 104
  store ptr @.str.34, ptr %.sroa.2.0..sroa_idx.i32.i, align 8, !alias.scope !46, !noalias !34
  %22 = getelementptr inbounds nuw i8, ptr %4, i64 112
  store ptr null, ptr %22, align 8, !alias.scope !46, !noalias !34
  call void @_Z10cmCatViewsSt16initializer_listISt4pairISt17basic_string_viewIcSt11char_traitsIcEEPNSt7__cxx1112basic_stringIcS3_SaIcEEEEE(ptr dead_on_unwind nonnull writable sret(%"class.std::__cxx11::basic_string") align 8 %5, ptr nonnull %4, i64 5)
  call void @llvm.lifetime.end.p0(i64 120, ptr nonnull %4)
  invoke void @_ZNK10cmMakefile12IssueMessageE11MessageTypeRKNSt7__cxx1112basic_stringIcSt11char_traitsIcESaIcEEE(ptr noundef nonnull align 8 dereferenceable(3520) %0, i32 noundef 0, ptr noundef nonnull align 8 dereferenceable(32) %5)
          to label %23 unwind label %24

23:                                               ; preds = %3
  call void @_ZNSt7__cxx1112basic_stringIcSt11char_traitsIcESaIcEED1Ev(ptr noundef nonnull align 8 dereferenceable(32) %5) #17
  ret void

24:                                               ; preds = %3
  %25 = landingpad { ptr, i32 }
          cleanup
  call void @_ZNSt7__cxx1112basic_stringIcSt11char_traitsIcESaIcEED1Ev(ptr noundef nonnull align 8 dereferenceable(32) %5) #17
  resume { ptr, i32 } %25
}